target datalayout = "e-m:e-p270:32:32-p271:32:32-p272:64:64-i64:64-i128:128-f80:128-n8:16:32:64-S128"
target triple = "x86_64-pc-linux-gnu"

%"class.zxing::qrcode::BitMatrixParser" = type <{ %"class.zxing::Counted.base", [4 x i8], %"class.zxing::Ref", ptr, %"class.zxing::Ref.0", i8, [7 x i8] }>
%"class.zxing::Counted.base" = type <{ ptr, i32 }>
%"class.zxing::Ref" = type { ptr }
%"class.zxing::Ref.0" = type { ptr }
%"class.zxing::BitMatrix" = type <{ %"class.zxing::Counted.base", i32, i32, i32, %"class.std::vector", %"class.std::vector", %"class.std::vector.1", %"class.std::vector", %"class.std::vector", %"class.std::vector", %"class.std::vector", %"class.std::vector.1", %"class.std::vector", %"class.std::vector", %"class.zxing::ArrayRef", %"class.zxing::ArrayRef.5", i8, i8, [6 x i8] }>
%"class.std::vector.1" = type { %"struct.std::_Bvector_base" }
%"struct.std::_Bvector_base" = type { %"struct.std::_Bvector_base<std::allocator<bool>>::_Bvector_impl" }
%"struct.std::_Bvector_base<std::allocator<bool>>::_Bvector_impl" = type { %"struct.std::_Bvector_base<std::allocator<bool>>::_Bvector_impl_data" }
%"struct.std::_Bvector_base<std::allocator<bool>>::_Bvector_impl_data" = type { %"struct.std::_Bit_iterator", %"struct.std::_Bit_iterator", ptr }
%"struct.std::_Bit_iterator" = type { %"struct.std::_Bit_iterator_base.base", [4 x i8] }
%"struct.std::_Bit_iterator_base.base" = type <{ ptr, i32 }>
%"class.std::vector" = type { %"struct.std::_Vector_base" }
%"struct.std::_Vector_base" = type { %"struct.std::_Vector_base<short, std::allocator<short>>::_Vector_impl" }
%"struct.std::_Vector_base<short, std::allocator<short>>::_Vector_impl" = type { %"struct.std::_Vector_base<short, std::allocator<short>>::_Vector_impl_data" }
%"struct.std::_Vector_base<short, std::allocator<short>>::_Vector_impl_data" = type { ptr, ptr, ptr }
%"class.zxing::ArrayRef" = type { %"class.zxing::Counted.base", ptr }
%"class.zxing::ArrayRef.5" = type { %"class.zxing::Counted.base", ptr }
%"class.zxing::Array" = type { %"class.zxing::Counted.base", %"class.std::vector.15" }
%"class.std::vector.15" = type { %"struct.std::_Vector_base.16" }
%"struct.std::_Vector_base.16" = type { %"struct.std::_Vector_base<unsigned char, std::allocator<unsigned char>>::_Vector_impl" }
%"struct.std::_Vector_base<unsigned char, std::allocator<unsigned char>>::_Vector_impl" = type { %"struct.std::_Vector_base<unsigned char, std::allocator<unsigned char>>::_Vector_impl_data" }
%"struct.std::_Vector_base<unsigned char, std::allocator<unsigned char>>::_Vector_impl_data" = type { ptr, ptr, ptr }

; Function Attrs: mustprogress nounwind uwtable
define linkonce_odr hidden noundef nonnull align 1 dereferenceable(1) ptr @_ZNSt6vectorIhSaIhEEixEm(ptr noundef nonnull align 8 dereferenceable(24) %0, i64 noundef %1) #2 comdat align 2 {
  %3 = alloca ptr, align 8
  %4 = alloca i64, align 8
  store ptr %0, ptr %3, align 8, !tbaa !93
  store i64 %1, ptr %4, align 8, !tbaa !8
  %5 = load ptr, ptr %3, align 8
  %6 = getelementptr inbounds nuw %"struct.std::_Vector_base.16", ptr %5, i32 0, i32 0
  %7 = getelementptr inbounds nuw %"struct.std::_Vector_base<unsigned char, std::allocator<unsigned char>>::_Vector_impl_data", ptr %6, i32 0, i32 0
  %8 = load ptr, ptr %7, align 8, !tbaa !95
  %9 = load i64, ptr %4, align 8, !tbaa !8
  %10 = getelementptr inbounds nuw i8, ptr %8, i64 %9
  ret ptr %10
}

; Function Attrs: mustprogress nounwind uwtable
define linkonce_odr hidden noundef nonnull align 1 dereferenceable(1) ptr @_ZN5zxing5ArrayIhEixEi(ptr noundef nonnull align 8 dereferenceable(40) %0, i32 noundef %1) #2 comdat align 2 {
  %3 = alloca ptr, align 8
  %4 = alloca i32, align 4
  store ptr %0, ptr %3, align 8, !tbaa !92
  store i32 %1, ptr %4, align 4, !tbaa !10
  %5 = load ptr, ptr %3, align 8
  %6 = getelementptr inbounds nuw %"class.zxing::Array", ptr %5, i32 0, i32 1
  %7 = load i32, ptr %4, align 4, !tbaa !10
  %8 = sext i32 %7 to i64
  %9 = call noundef nonnull align 1 dereferenceable(1) ptr @_ZNSt6vectorIhSaIhEEixEm(ptr noundef nonnull align 8 dereferenceable(24) %6, i64 noundef %8) #12
  ret ptr %9
}

; Function Attrs: mustprogress uwtable
define linkonce_odr hidden noundef nonnull align 1 dereferenceable(1) ptr @_ZNK5zxing8ArrayRefIhEixEi(ptr noundef nonnull align 8 dereferenceable(24) %0, i32 noundef %1) #0 comdat align 2 {
  %3 = alloca ptr, align 8
  %4 = alloca i32, align 4
  store ptr %0, ptr %3, align 8, !tbaa !89
  store i32 %1, ptr %4, align 4, !tbaa !10
  %5 = load ptr, ptr %3, align 8
  %6 = getelementptr inbounds nuw %"class.zxing::ArrayRef", ptr %5, i32 0, i32 1
  %7 = load ptr, ptr %6, align 8, !tbaa !91
  %8 = load i32, ptr %4, align 4, !tbaa !10
  %9 = call noundef nonnull align 1 dereferenceable(1) ptr @_ZN5zxing5ArrayIhEixEi(ptr noundef nonnull align 8 dereferenceable(40) %7, i32 noundef %8)
  ret ptr %9
}

; Function Attrs: mustprogress uwtable
define linkonce_odr hidden noundef zeroext i8 @_ZNK5zxing9BitMatrix3getEii(ptr noundef nonnull align 8 dereferenceable(346) %0, i32 noundef %1, i32 noundef %2) #0 comdat align 2 {
  %4 = alloca ptr, align 8
  %5 = alloca i32, align 4
  %6 = alloca i32, align 4
  store ptr %0, ptr %4, align 8, !tbaa !27
  store i32 %1, ptr %5, align 4, !tbaa !10
  store i32 %2, ptr %6, align 4, !tbaa !10
  %7 = load ptr, ptr %4, align 8
  %8 = getelementptr inbounds nuw %"class.zxing::BitMatrix", ptr %7, i32 0, i32 14
  %9 = getelementptr inbounds nuw %"class.zxing::BitMatrix", ptr %7, i32 0, i32 1
  %10 = load i32, ptr %9, align 4, !tbaa !28
  %11 = load i32, ptr %6, align 4, !tbaa !10
  %12 = mul nsw i32 %10, %11
  %13 = load i32, ptr %5, align 4, !tbaa !10
  %14 = add nsw i32 %12, %13
  %15 = call noundef nonnull align 1 dereferenceable(1) ptr @_ZNK5zxing8ArrayRefIhEixEi(ptr noundef nonnull align 8 dereferenceable(24) %8, i32 noundef %14)
  %16 = load i8, ptr %15, align 1, !tbaa !46
  ret i8 %16
}

; Function Attrs: mustprogress nounwind uwtable
define linkonce_odr hidden noundef ptr @_ZNK5zxing3RefINS_9BitMatrixEEptEv(ptr noundef nonnull align 8 dereferenceable(8) %0) #2 comdat align 2 {
  %2 = alloca ptr, align 8
  store ptr %0, ptr %2, align 8, !tbaa !24
  %3 = load ptr, ptr %2, align 8
  %4 = getelementptr inbounds nuw %"class.zxing::Ref", ptr %3, i32 0, i32 0
  %5 = load ptr, ptr %4, align 8, !tbaa !26
  ret ptr %5
}

; Function Attrs: mustprogress uwtable
define hidden noundef i32 @_ZN5zxing6qrcode15BitMatrixParser7copyBitEmmi(ptr noundef nonnull align 8 dereferenceable(41) %0, i64 noundef %1, i64 noundef %2, i32 noundef %3) #0 align 2 {
  %5 = alloca ptr, align 8
  %6 = alloca i64, align 8
  %7 = alloca i64, align 8
  %8 = alloca i32, align 4
  %9 = alloca i8, align 1
  store ptr %0, ptr %5, align 8, !tbaa !3
  store i64 %1, ptr %6, align 8, !tbaa !8
  store i64 %2, ptr %7, align 8, !tbaa !8
  store i32 %3, ptr %8, align 4, !tbaa !10
  %10 = load ptr, ptr %5, align 8
  call void @llvm.lifetime.start.p0(i64 1, ptr %9) #12
  %11 = getelementptr inbounds nuw %"class.zxing::qrcode::BitMatrixParser", ptr %10, i32 0, i32 5
  %12 = load i8, ptr %11, align 8, !tbaa !12, !range !21, !noundef !22
  %13 = trunc i8 %12 to i1
  br i1 %13, label %14, label %22

14:                                               ; preds = %4
  %15 = getelementptr inbounds nuw %"class.zxing::qrcode::BitMatrixParser", ptr %10, i32 0, i32 2
  %16 = call noundef ptr @_ZNK5zxing3RefINS_9BitMatrixEEptEv(ptr noundef nonnull align 8 dereferenceable(8) %15)
  %17 = load i64, ptr %7, align 8, !tbaa !8
  %18 = trunc i64 %17 to i32
  %19 = load i64, ptr %6, align 8, !tbaa !8
  %20 = trunc i64 %19 to i32
  %21 = call noundef zeroext i8 @_ZNK5zxing9BitMatrix3getEii(ptr noundef nonnull align 8 dereferenceable(346) %16, i32 noundef %18, i32 noundef %20)
  br label %30

22:                                               ; preds = %4
  %23 = getelementptr inbounds nuw %"class.zxing::qrcode::BitMatrixParser", ptr %10, i32 0, i32 2
  %24 = call noundef ptr @_ZNK5zxing3RefINS_9BitMatrixEEptEv(ptr noundef nonnull align 8 dereferenceable(8) %23)
  %25 = load i64, ptr %6, align 8, !tbaa !8
  %26 = trunc i64 %25 to i32
  %27 = load i64, ptr %7, align 8, !tbaa !8
  %28 = trunc i64 %27 to i32
  %29 = call noundef zeroext i8 @_ZNK5zxing9BitMatrix3getEii(ptr noundef nonnull align 8 dereferenceable(346) %24, i32 noundef %26, i32 noundef %28)
  br label %30

30:                                               ; preds = %22, %14
  %31 = phi i8 [ %21, %14 ], [ %29, %22 ]
  %32 = zext i8 %31 to i32
  %33 = icmp ne i32 %32, 0
  %34 = zext i1 %33 to i8
  store i8 %34, ptr %9, align 1, !tbaa !23
  %35 = load i8, ptr %9, align 1, !tbaa !23, !range !21, !noundef !22
  %36 = trunc i8 %35 to i1
  br i1 %36, label %37, label %41

37:                                               ; preds = %30
  %38 = load i32, ptr %8, align 4, !tbaa !10
  %39 = shl i32 %38, 1
  %40 = or i32 %39, 1
  br label %44

41:                                               ; preds = %30
  %42 = load i32, ptr %8, align 4, !tbaa !10
  %43 = shl i32 %42, 1
  br label %44

44:                                               ; preds = %41, %37
  %45 = phi i32 [ %40, %37 ], [ %43, %41 ]
  call void @llvm.lifetime.end.p0(i64 1, ptr %9) #12
  ret i32 %45
}