; Function Attrs: mustprogress nofree norecurse nosync nounwind willreturn memory(read, inaccessiblemem: none) uwtable
define hidden noundef i32 @_ZN5zxing6qrcode15BitMatrixParser7copyBitEmmi(ptr noundef nonnull readonly align 8 captures(none) dereferenceable(41) %0, i64 noundef %1, i64 noundef %2, i32 noundef %3) local_unnamed_addr #0 align 2 {
  %5 = getelementptr inbounds nuw i8, ptr %0, i64 40
  %6 = load i8, ptr %5, align 8, !tbaa !3, !range !16, !noundef !17
  %7 = trunc nuw i8 %6 to i1
  %8 = getelementptr inbounds nuw i8, ptr %0, i64 16
  %9 = load ptr, ptr %8, align 8, !tbaa !18
  %10 = getelementptr inbounds nuw i8, ptr %9, i64 12
  %11 = load i32, ptr %10, align 4, !tbaa !19
  %12 = getelementptr inbounds nuw i8, ptr %9, i64 312
  %13 = load ptr, ptr %12, align 8, !tbaa !37
  %14 = getelementptr inbounds nuw i8, ptr %13, i64 16
  %15 = load ptr, ptr %14, align 8, !tbaa !38
  %. = select i1 %7, i64 %2, i64 %1
  %.11 = select i1 %7, i64 %1, i64 %2
  %16 = trunc i64 %. to i32
  %17 = trunc i64 %.11 to i32
  %18 = mul nsw i32 %11, %17
  %19 = add nsw i32 %18, %16
  %20 = sext i32 %19 to i64
  %21 = getelementptr inbounds nuw i8, ptr %15, i64 %20
  %22 = load i8, ptr %21, align 1, !tbaa !41
  %.not = icmp ne i8 %22, 0
  %23 = shl i32 %3, 1
  %24 = zext i1 %.not to i32
  %25 = or disjoint i32 %23, %24
  ret i32 %25
}